; Function Attrs: mustprogress uwtable
define dso_local void @_ZN4absl24synchronization_internal12PerThreadSem4TickEPNS_13base_internal14ThreadIdentityE(ptr noundef %0) local_unnamed_addr #0 align 2 personality ptr @__gxx_personality_v0 {
  %2 = getelementptr inbounds nuw i8, ptr %0, i64 328
  %3 = atomicrmw add ptr %2, i32 1 monotonic, align 4
  %4 = getelementptr inbounds nuw i8, ptr %0, i64 332
  %5 = load atomic i32, ptr %4 monotonic, align 4
  %6 = getelementptr inbounds nuw i8, ptr %0, i64 336
  %7 = load atomic i8, ptr %6 monotonic, align 1
  %.not = icmp eq i32 %5, 0
  br i1 %.not, label %14, label %8

8:                                                ; preds = %1
  %9 = trunc i8 %7 to i1
  %10 = add nsw i32 %3, 1
  %11 = sub i32 %10, %5
  %12 = icmp slt i32 %11, 61
  %brmerge = or i1 %12, %9
  br i1 %brmerge, label %14, label %13

13:                                               ; preds = %8
  tail call void @AbslInternalPerThreadSemPoke(ptr noundef nonnull %0)
  br label %14

14:                                               ; preds = %8, %13, %1
  ret void
}